target datalayout = "e-m:e-p270:32:32-p271:32:32-p272:64:64-i64:64-i128:128-f80:128-n8:16:32:64-S128"
target triple = "x86_64-pc-linux-gnu"

%struct.slurm_step_id_msg = type { i64, i32, i32, i32 }
%struct.step_launch_state = type { %union.pthread_mutex_t, %union.pthread_cond_t, i32, ptr, ptr, ptr, i64, i8, ptr, i32, i8, i8, i8, i32, ptr, i64, i32, i16, ptr, ptr, ptr, [1 x %struct.mpi_step_info_t], ptr, i32, %struct.slurm_step_launch_callbacks_t }
%union.pthread_mutex_t = type { %struct.__pthread_mutex_s }
%struct.__pthread_mutex_s = type { i32, i32, i32, i32, i32, i16, i16, %struct.__pthread_internal_list }
%struct.__pthread_internal_list = type { ptr, ptr }
%union.pthread_cond_t = type { %struct.__pthread_cond_s }
%struct.__pthread_cond_s = type { %union.__atomic_wide_counter, %union.__atomic_wide_counter, [2 x i32], [2 x i32], i32, i32, [2 x i32] }
%union.__atomic_wide_counter = type { i64 }
%struct.mpi_step_info_t = type { i32, i32, %struct.slurm_step_id_msg, ptr }
%struct.slurm_step_launch_callbacks_t = type { ptr, ptr, ptr, ptr, ptr }

@.str.2 = private unnamed_addr constant [14 x i8] c"step_launch.c\00", align 1
@.str.3 = private unnamed_addr constant [29 x i8] c"%s: pthread_mutex_lock(): %m\00", align 1
@.str.4 = private unnamed_addr constant [31 x i8] c"%s: pthread_mutex_unlock(): %m\00", align 1
@.str.6 = private unnamed_addr constant [39 x i8] c"%s:%d %s: pthread_cond_broadcast(): %m\00", align 1
@__func__.step_launch_notify_io_failure = private unnamed_addr constant [30 x i8] c"step_launch_notify_io_failure\00", align 1
@.str.22 = private unnamed_addr constant [20 x i8] c"IO error on node %d\00", align 1
@.str.23 = private unnamed_addr constant [47 x i8] c"Aborting, io error and missing step on node %d\00", align 1
@.str.24 = private unnamed_addr constant [15 x i8] c"SLURM_PTY_PORT\00", align 1
@.str.25 = private unnamed_addr constant [50 x i8] c"%s: aborting, io error with slurmstepd on node %d\00", align 1

; Function Attrs: nounwind uwtable
define dso_local i32 @step_launch_notify_io_failure(ptr noundef %0, i32 noundef %1) #0 {
  %3 = alloca ptr, align 8
  %4 = alloca i32, align 4
  %5 = alloca i32, align 4
  %6 = alloca i32, align 4
  %7 = alloca i32, align 4
  %8 = alloca i32, align 4
  store ptr %0, ptr %3, align 8
  store i32 %1, ptr %4, align 4
  br label %9

9:                                                ; preds = %2
  call void @llvm.lifetime.start.p0(i64 4, ptr %5) #10
  %10 = load ptr, ptr %3, align 8
  %11 = getelementptr inbounds nuw %struct.step_launch_state, ptr %10, i32 0, i32 0
  %12 = call i32 @pthread_mutex_lock(ptr noundef %11) #10
  store i32 %12, ptr %5, align 4
  %13 = load i32, ptr %5, align 4
  %14 = icmp ne i32 %13, 0
  br i1 %14, label %15, label %18

15:                                               ; preds = %9
  %16 = load i32, ptr %5, align 4
  %17 = call ptr @__errno_location() #11
  store i32 %16, ptr %17, align 4
  call void (ptr, ...) @fatal_abort(ptr noundef @.str.3, ptr noundef @__func__.step_launch_notify_io_failure) #12
  unreachable

18:                                               ; preds = %9
  call void @llvm.lifetime.end.p0(i64 4, ptr %5) #10
  br label %19

19:                                               ; preds = %18
  %20 = load ptr, ptr %3, align 8
  %21 = getelementptr inbounds nuw %struct.step_launch_state, ptr %20, i32 0, i32 5
  %22 = load ptr, ptr %21, align 8
  %23 = load i32, ptr %4, align 4
  %24 = sext i32 %23 to i64
  call void @bit_set(ptr noundef %22, i64 noundef %24)
  br label %25

25:                                               ; preds = %19
  br label %26

26:                                               ; preds = %25
  %27 = call i32 @get_log_level()
  %28 = icmp sge i32 %27, 5
  br i1 %28, label %29, label %31

29:                                               ; preds = %26
  %30 = load i32, ptr %4, align 4
  call void (i32, ptr, ...) @log_var(i32 noundef 5, ptr noundef @.str.22, i32 noundef %30)
  br label %31

31:                                               ; preds = %29, %26
  br label %32

32:                                               ; preds = %31
  br label %33

33:                                               ; preds = %32
  %34 = load ptr, ptr %3, align 8
  %35 = getelementptr inbounds nuw %struct.step_launch_state, ptr %34, i32 0, i32 8
  %36 = load ptr, ptr %35, align 8
  %37 = load i32, ptr %4, align 4
  %38 = sext i32 %37 to i64
  %39 = getelementptr inbounds i64, ptr %36, i64 %38
  %40 = load i64, ptr %39, align 8
  %41 = icmp ne i64 %40, 4294967294
  br i1 %41, label %42, label %59

42:                                               ; preds = %33
  %43 = load i32, ptr %4, align 4
  %44 = call i32 (ptr, ...) @error(ptr noundef @.str.23, i32 noundef %43)
  %45 = load ptr, ptr %3, align 8
  %46 = getelementptr inbounds nuw %struct.step_launch_state, ptr %45, i32 0, i32 11
  store i8 1, ptr %46, align 1
  br label %47

47:                                               ; preds = %42
  call void @llvm.lifetime.start.p0(i64 4, ptr %6) #10
  %48 = load ptr, ptr %3, align 8
  %49 = getelementptr inbounds nuw %struct.step_launch_state, ptr %48, i32 0, i32 1
  %50 = call i32 @pthread_cond_broadcast(ptr noundef %49) #10
  store i32 %50, ptr %6, align 4
  %51 = load i32, ptr %6, align 4
  %52 = icmp ne i32 %51, 0
  br i1 %52, label %53, label %57

53:                                               ; preds = %47
  %54 = load i32, ptr %6, align 4
  %55 = call ptr @__errno_location() #11
  store i32 %54, ptr %55, align 4
  %56 = call i32 (ptr, ...) @error(ptr noundef @.str.6, ptr noundef @.str.2, i32 noundef 1771, ptr noundef @__func__.step_launch_notify_io_failure)
  br label %57

57:                                               ; preds = %53, %47
  call void @llvm.lifetime.end.p0(i64 4, ptr %6) #10
  br label %58

58:                                               ; preds = %57
  br label %80

59:                                               ; preds = %33
  %60 = call ptr @getenv(ptr noundef @.str.24) #10
  %61 = icmp eq ptr %60, null
  br i1 %61, label %62, label %79

62:                                               ; preds = %59
  %63 = load i32, ptr %4, align 4
  %64 = call i32 (ptr, ...) @error(ptr noundef @.str.25, ptr noundef @__func__.step_launch_notify_io_failure, i32 noundef %63)
  %65 = load ptr, ptr %3, align 8
  %66 = getelementptr inbounds nuw %struct.step_launch_state, ptr %65, i32 0, i32 11
  store i8 1, ptr %66, align 1
  br label %67

67:                                               ; preds = %62
  call void @llvm.lifetime.start.p0(i64 4, ptr %7) #10
  %68 = load ptr, ptr %3, align 8
  %69 = getelementptr inbounds nuw %struct.step_launch_state, ptr %68, i32 0, i32 1
  %70 = call i32 @pthread_cond_broadcast(ptr noundef %69) #10
  store i32 %70, ptr %7, align 4
  %71 = load i32, ptr %7, align 4
  %72 = icmp ne i32 %71, 0
  br i1 %72, label %73, label %77

73:                                               ; preds = %67
  %74 = load i32, ptr %7, align 4
  %75 = call ptr @__errno_location() #11
  store i32 %74, ptr %75, align 4
  %76 = call i32 (ptr, ...) @error(ptr noundef @.str.6, ptr noundef @.str.2, i32 noundef 1785, ptr noundef @__func__.step_launch_notify_io_failure)
  br label %77

77:                                               ; preds = %73, %67
  call void @llvm.lifetime.end.p0(i64 4, ptr %7) #10
  br label %78

78:                                               ; preds = %77
  br label %79

79:                                               ; preds = %78, %59
  br label %80

80:                                               ; preds = %79, %58
  br label %81

81:                                               ; preds = %80
  call void @llvm.lifetime.start.p0(i64 4, ptr %8) #10
  %82 = load ptr, ptr %3, align 8
  %83 = getelementptr inbounds nuw %struct.step_launch_state, ptr %82, i32 0, i32 0
  %84 = call i32 @pthread_mutex_unlock(ptr noundef %83) #10
  store i32 %84, ptr %8, align 4
  %85 = load i32, ptr %8, align 4
  %86 = icmp ne i32 %85, 0
  br i1 %86, label %87, label %90

87:                                               ; preds = %81
  %88 = load i32, ptr %8, align 4
  %89 = call ptr @__errno_location() #11
  store i32 %88, ptr %89, align 4
  call void (ptr, ...) @fatal_abort(ptr noundef @.str.4, ptr noundef @__func__.step_launch_notify_io_failure) #12
  unreachable

90:                                               ; preds = %81
  call void @llvm.lifetime.end.p0(i64 4, ptr %8) #10
  br label %91

91:                                               ; preds = %90
  ret i32 0
}