; Function Attrs: nounwind uwtable
define dso_local noundef i32 @step_launch_notify_io_failure(ptr noundef %0, i32 noundef %1) local_unnamed_addr #3 {
  %3 = tail call i32 @pthread_mutex_lock(ptr noundef %0) #14
  %.not = icmp eq i32 %3, 0
  br i1 %.not, label %6, label %4

4:                                                ; preds = %2
  %5 = tail call ptr @__errno_location() #15
  store i32 %3, ptr %5, align 4
  tail call void (ptr, ...) @fatal_abort(ptr noundef nonnull @.str.3, ptr noundef nonnull @__func__.step_launch_notify_io_failure) #16
  unreachable

6:                                                ; preds = %2
  %7 = getelementptr inbounds nuw i8, ptr %0, i64 112
  %8 = load ptr, ptr %7, align 8
  %9 = sext i32 %1 to i64
  tail call void @bit_set(ptr noundef %8, i64 noundef %9) #14
  %10 = tail call i32 @get_log_level() #14
  %11 = icmp sgt i32 %10, 4
  br i1 %11, label %12, label %13

12:                                               ; preds = %6
  tail call void (i32, ptr, ...) @log_var(i32 noundef 5, ptr noundef nonnull @.str.22, i32 noundef %1) #14
  br label %13

13:                                               ; preds = %12, %6
  %14 = getelementptr inbounds nuw i8, ptr %0, i64 136
  %15 = load ptr, ptr %14, align 8
  %16 = getelementptr inbounds i64, ptr %15, i64 %9
  %17 = load i64, ptr %16, align 8
  %.not23 = icmp eq i64 %17, 4294967294
  br i1 %.not23, label %23, label %18

18:                                               ; preds = %13
  %19 = tail call i32 (ptr, ...) @error(ptr noundef nonnull @.str.23, i32 noundef %1) #14
  %20 = getelementptr inbounds nuw i8, ptr %0, i64 149
  store i8 1, ptr %20, align 1
  %21 = getelementptr inbounds nuw i8, ptr %0, i64 40
  %22 = tail call i32 @pthread_cond_broadcast(ptr noundef nonnull %21) #14
  %.not25 = icmp eq i32 %22, 0
  br i1 %.not25, label %33, label %.sink.split

23:                                               ; preds = %13
  %24 = tail call ptr @getenv(ptr noundef nonnull @.str.24) #14
  %25 = icmp eq ptr %24, null
  br i1 %25, label %26, label %33

26:                                               ; preds = %23
  %27 = tail call i32 (ptr, ...) @error(ptr noundef nonnull @.str.25, ptr noundef nonnull @__func__.step_launch_notify_io_failure, i32 noundef %1) #14
  %28 = getelementptr inbounds nuw i8, ptr %0, i64 149
  store i8 1, ptr %28, align 1
  %29 = getelementptr inbounds nuw i8, ptr %0, i64 40
  %30 = tail call i32 @pthread_cond_broadcast(ptr noundef nonnull %29) #14
  %.not24 = icmp eq i32 %30, 0
  br i1 %.not24, label %33, label %.sink.split

.sink.split:                                      ; preds = %26, %18
  %.sink27 = phi i32 [ %22, %18 ], [ %30, %26 ]
  %.sink = phi i32 [ 1771, %18 ], [ 1785, %26 ]
  %31 = tail call ptr @__errno_location() #15
  store i32 %.sink27, ptr %31, align 4
  %32 = tail call i32 (ptr, ...) @error(ptr noundef nonnull @.str.6, ptr noundef nonnull @.str.2, i32 noundef %.sink, ptr noundef nonnull @__func__.step_launch_notify_io_failure) #14
  br label %33

33:                                               ; preds = %.sink.split, %26, %18, %23
  %34 = tail call i32 @pthread_mutex_unlock(ptr noundef nonnull %0) #14
  %.not26 = icmp eq i32 %34, 0
  br i1 %.not26, label %37, label %35

35:                                               ; preds = %33
  %36 = tail call ptr @__errno_location() #15
  store i32 %34, ptr %36, align 4
  tail call void (ptr, ...) @fatal_abort(ptr noundef nonnull @.str.4, ptr noundef nonnull @__func__.step_launch_notify_io_failure) #16
  unreachable

37:                                               ; preds = %33
  ret i32 0
}